
b64_encoder:     file format elf64-x86-64


Disassembly of section .init:

0000000000001000 <_init>:
    1000:	f3 0f 1e fa          	endbr64 
    1004:	48 83 ec 08          	sub    $0x8,%rsp
    1008:	48 8b 05 d9 2f 00 00 	mov    0x2fd9(%rip),%rax        # 3fe8 <__gmon_start__>
    100f:	48 85 c0             	test   %rax,%rax
    1012:	74 02                	je     1016 <_init+0x16>
    1014:	ff d0                	callq  *%rax
    1016:	48 83 c4 08          	add    $0x8,%rsp
    101a:	c3                   	retq   

Disassembly of section .plt:

0000000000001020 <.plt>:
    1020:	ff 35 6a 2f 00 00    	pushq  0x2f6a(%rip)        # 3f90 <_GLOBAL_OFFSET_TABLE_+0x8>
    1026:	f2 ff 25 6b 2f 00 00 	bnd jmpq *0x2f6b(%rip)        # 3f98 <_GLOBAL_OFFSET_TABLE_+0x10>
    102d:	0f 1f 00             	nopl   (%rax)
    1030:	f3 0f 1e fa          	endbr64 
    1034:	68 00 00 00 00       	pushq  $0x0
    1039:	f2 e9 e1 ff ff ff    	bnd jmpq 1020 <.plt>
    103f:	90                   	nop
    1040:	f3 0f 1e fa          	endbr64 
    1044:	68 01 00 00 00       	pushq  $0x1
    1049:	f2 e9 d1 ff ff ff    	bnd jmpq 1020 <.plt>
    104f:	90                   	nop
    1050:	f3 0f 1e fa          	endbr64 
    1054:	68 02 00 00 00       	pushq  $0x2
    1059:	f2 e9 c1 ff ff ff    	bnd jmpq 1020 <.plt>
    105f:	90                   	nop
    1060:	f3 0f 1e fa          	endbr64 
    1064:	68 03 00 00 00       	pushq  $0x3
    1069:	f2 e9 b1 ff ff ff    	bnd jmpq 1020 <.plt>
    106f:	90                   	nop
    1070:	f3 0f 1e fa          	endbr64 
    1074:	68 04 00 00 00       	pushq  $0x4
    1079:	f2 e9 a1 ff ff ff    	bnd jmpq 1020 <.plt>
    107f:	90                   	nop
    1080:	f3 0f 1e fa          	endbr64 
    1084:	68 05 00 00 00       	pushq  $0x5
    1089:	f2 e9 91 ff ff ff    	bnd jmpq 1020 <.plt>
    108f:	90                   	nop
    1090:	f3 0f 1e fa          	endbr64 
    1094:	68 06 00 00 00       	pushq  $0x6
    1099:	f2 e9 81 ff ff ff    	bnd jmpq 1020 <.plt>
    109f:	90                   	nop

Disassembly of section .plt.got:

00000000000010a0 <__cxa_finalize@plt>:
    10a0:	f3 0f 1e fa          	endbr64 
    10a4:	f2 ff 25 4d 2f 00 00 	bnd jmpq *0x2f4d(%rip)        # 3ff8 <__cxa_finalize@GLIBC_2.2.5>
    10ab:	0f 1f 44 00 00       	nopl   0x0(%rax,%rax,1)

Disassembly of section .plt.sec:

00000000000010b0 <pow@plt>:
    10b0:	f3 0f 1e fa          	endbr64 
    10b4:	f2 ff 25 e5 2e 00 00 	bnd jmpq *0x2ee5(%rip)        # 3fa0 <pow@GLIBC_2.29>
    10bb:	0f 1f 44 00 00       	nopl   0x0(%rax,%rax,1)

00000000000010c0 <strlen@plt>:
    10c0:	f3 0f 1e fa          	endbr64 
    10c4:	f2 ff 25 dd 2e 00 00 	bnd jmpq *0x2edd(%rip)        # 3fa8 <strlen@GLIBC_2.2.5>
    10cb:	0f 1f 44 00 00       	nopl   0x0(%rax,%rax,1)

00000000000010d0 <__stack_chk_fail@plt>:
    10d0:	f3 0f 1e fa          	endbr64 
    10d4:	f2 ff 25 d5 2e 00 00 	bnd jmpq *0x2ed5(%rip)        # 3fb0 <__stack_chk_fail@GLIBC_2.4>
    10db:	0f 1f 44 00 00       	nopl   0x0(%rax,%rax,1)

00000000000010e0 <printf@plt>:
    10e0:	f3 0f 1e fa          	endbr64 
    10e4:	f2 ff 25 cd 2e 00 00 	bnd jmpq *0x2ecd(%rip)        # 3fb8 <printf@GLIBC_2.2.5>
    10eb:	0f 1f 44 00 00       	nopl   0x0(%rax,%rax,1)

00000000000010f0 <memset@plt>:
    10f0:	f3 0f 1e fa          	endbr64 
    10f4:	f2 ff 25 c5 2e 00 00 	bnd jmpq *0x2ec5(%rip)        # 3fc0 <memset@GLIBC_2.2.5>
    10fb:	0f 1f 44 00 00       	nopl   0x0(%rax,%rax,1)

0000000000001100 <malloc@plt>:
    1100:	f3 0f 1e fa          	endbr64 
    1104:	f2 ff 25 bd 2e 00 00 	bnd jmpq *0x2ebd(%rip)        # 3fc8 <malloc@GLIBC_2.2.5>
    110b:	0f 1f 44 00 00       	nopl   0x0(%rax,%rax,1)

0000000000001110 <ceil@plt>:
    1110:	f3 0f 1e fa          	endbr64 
    1114:	f2 ff 25 b5 2e 00 00 	bnd jmpq *0x2eb5(%rip)        # 3fd0 <ceil@GLIBC_2.2.5>
    111b:	0f 1f 44 00 00       	nopl   0x0(%rax,%rax,1)

Disassembly of section .text:

0000000000001120 <_start>:
    1120:	f3 0f 1e fa          	endbr64 
    1124:	31 ed                	xor    %ebp,%ebp
    1126:	49 89 d1             	mov    %rdx,%r9
    1129:	5e                   	pop    %rsi
    112a:	48 89 e2             	mov    %rsp,%rdx
    112d:	48 83 e4 f0          	and    $0xfffffffffffffff0,%rsp
    1131:	50                   	push   %rax
    1132:	54                   	push   %rsp
    1133:	4c 8d 05 86 07 00 00 	lea    0x786(%rip),%r8        # 18c0 <__libc_csu_fini>
    113a:	48 8d 0d 0f 07 00 00 	lea    0x70f(%rip),%rcx        # 1850 <__libc_csu_init>
    1141:	48 8d 3d c1 00 00 00 	lea    0xc1(%rip),%rdi        # 1209 <main>
    1148:	ff 15 92 2e 00 00    	callq  *0x2e92(%rip)        # 3fe0 <__libc_start_main@GLIBC_2.2.5>
    114e:	f4                   	hlt    
    114f:	90                   	nop

0000000000001150 <deregister_tm_clones>:
    1150:	48 8d 3d b9 2e 00 00 	lea    0x2eb9(%rip),%rdi        # 4010 <__TMC_END__>
    1157:	48 8d 05 b2 2e 00 00 	lea    0x2eb2(%rip),%rax        # 4010 <__TMC_END__>
    115e:	48 39 f8             	cmp    %rdi,%rax
    1161:	74 15                	je     1178 <deregister_tm_clones+0x28>
    1163:	48 8b 05 6e 2e 00 00 	mov    0x2e6e(%rip),%rax        # 3fd8 <_ITM_deregisterTMCloneTable>
    116a:	48 85 c0             	test   %rax,%rax
    116d:	74 09                	je     1178 <deregister_tm_clones+0x28>
    116f:	ff e0                	jmpq   *%rax
    1171:	0f 1f 80 00 00 00 00 	nopl   0x0(%rax)
    1178:	c3                   	retq   
    1179:	0f 1f 80 00 00 00 00 	nopl   0x0(%rax)

0000000000001180 <register_tm_clones>:
    1180:	48 8d 3d 89 2e 00 00 	lea    0x2e89(%rip),%rdi        # 4010 <__TMC_END__>
    1187:	48 8d 35 82 2e 00 00 	lea    0x2e82(%rip),%rsi        # 4010 <__TMC_END__>
    118e:	48 29 fe             	sub    %rdi,%rsi
    1191:	48 89 f0             	mov    %rsi,%rax
    1194:	48 c1 ee 3f          	shr    $0x3f,%rsi
    1198:	48 c1 f8 03          	sar    $0x3,%rax
    119c:	48 01 c6             	add    %rax,%rsi
    119f:	48 d1 fe             	sar    %rsi
    11a2:	74 14                	je     11b8 <register_tm_clones+0x38>
    11a4:	48 8b 05 45 2e 00 00 	mov    0x2e45(%rip),%rax        # 3ff0 <_ITM_registerTMCloneTable>
    11ab:	48 85 c0             	test   %rax,%rax
    11ae:	74 08                	je     11b8 <register_tm_clones+0x38>
    11b0:	ff e0                	jmpq   *%rax
    11b2:	66 0f 1f 44 00 00    	nopw   0x0(%rax,%rax,1)
    11b8:	c3                   	retq   
    11b9:	0f 1f 80 00 00 00 00 	nopl   0x0(%rax)

00000000000011c0 <__do_global_dtors_aux>:
    11c0:	f3 0f 1e fa          	endbr64 
    11c4:	80 3d 45 2e 00 00 00 	cmpb   $0x0,0x2e45(%rip)        # 4010 <__TMC_END__>
    11cb:	75 2b                	jne    11f8 <__do_global_dtors_aux+0x38>
    11cd:	55                   	push   %rbp
    11ce:	48 83 3d 22 2e 00 00 	cmpq   $0x0,0x2e22(%rip)        # 3ff8 <__cxa_finalize@GLIBC_2.2.5>
    11d5:	00 
    11d6:	48 89 e5             	mov    %rsp,%rbp
    11d9:	74 0c                	je     11e7 <__do_global_dtors_aux+0x27>
    11db:	48 8b 3d 26 2e 00 00 	mov    0x2e26(%rip),%rdi        # 4008 <__dso_handle>
    11e2:	e8 b9 fe ff ff       	callq  10a0 <__cxa_finalize@plt>
    11e7:	e8 64 ff ff ff       	callq  1150 <deregister_tm_clones>
    11ec:	c6 05 1d 2e 00 00 01 	movb   $0x1,0x2e1d(%rip)        # 4010 <__TMC_END__>
    11f3:	5d                   	pop    %rbp
    11f4:	c3                   	retq   
    11f5:	0f 1f 00             	nopl   (%rax)
    11f8:	c3                   	retq   
    11f9:	0f 1f 80 00 00 00 00 	nopl   0x0(%rax)

0000000000001200 <frame_dummy>:
    1200:	f3 0f 1e fa          	endbr64 
    1204:	e9 77 ff ff ff       	jmpq   1180 <register_tm_clones>

0000000000001209 <main>:
    1209:	f3 0f 1e fa          	endbr64 
    120d:	55                   	push   %rbp
    120e:	48 89 e5             	mov    %rsp,%rbp
    1211:	48 81 ec c0 00 00 00 	sub    $0xc0,%rsp
    1218:	64 48 8b 04 25 28 00 	mov    %fs:0x28,%rax
    121f:	00 00 
    1221:	48 89 45 f8          	mov    %rax,-0x8(%rbp)
    1225:	31 c0                	xor    %eax,%eax
    1227:	c7 45 a2 61 73 64 66 	movl   $0x66647361,-0x5e(%rbp)
    122e:	c6 45 a6 00          	movb   $0x0,-0x5a(%rbp)
    1232:	48 b8 41 42 43 44 45 	movabs $0x4847464544434241,%rax
    1239:	46 47 48 
    123c:	48 ba 49 4a 4b 4c 4d 	movabs $0x504f4e4d4c4b4a49,%rdx
    1243:	4e 4f 50 
    1246:	48 89 45 b0          	mov    %rax,-0x50(%rbp)
    124a:	48 89 55 b8          	mov    %rdx,-0x48(%rbp)
    124e:	48 b8 51 52 53 54 55 	movabs $0x5857565554535251,%rax
    1255:	56 57 58 
    1258:	48 ba 59 5a 61 62 63 	movabs $0x6665646362615a59,%rdx
    125f:	64 65 66 
    1262:	48 89 45 c0          	mov    %rax,-0x40(%rbp)
    1266:	48 89 55 c8          	mov    %rdx,-0x38(%rbp)
    126a:	48 b8 67 68 69 6a 6b 	movabs $0x6e6d6c6b6a696867,%rax
    1271:	6c 6d 6e 
    1274:	48 ba 6f 70 71 72 73 	movabs $0x767574737271706f,%rdx
    127b:	74 75 76 
    127e:	48 89 45 d0          	mov    %rax,-0x30(%rbp)
    1282:	48 89 55 d8          	mov    %rdx,-0x28(%rbp)
    1286:	48 b8 77 78 79 7a 30 	movabs $0x333231307a797877,%rax
    128d:	31 32 33 
    1290:	48 ba 34 35 36 37 38 	movabs $0x2f2b393837363534,%rdx
    1297:	39 2b 2f 
    129a:	48 89 45 e0          	mov    %rax,-0x20(%rbp)
    129e:	48 89 55 e8          	mov    %rdx,-0x18(%rbp)
    12a2:	48 8d 45 a2          	lea    -0x5e(%rbp),%rax
    12a6:	48 89 c7             	mov    %rax,%rdi
    12a9:	e8 12 fe ff ff       	callq  10c0 <strlen@plt>
    12ae:	89 85 60 ff ff ff    	mov    %eax,-0xa0(%rbp)
    12b4:	8b 8d 60 ff ff ff    	mov    -0xa0(%rbp),%ecx
    12ba:	48 63 c1             	movslq %ecx,%rax
    12bd:	48 69 c0 56 55 55 55 	imul   $0x55555556,%rax,%rax
    12c4:	48 c1 e8 20          	shr    $0x20,%rax
    12c8:	48 89 c2             	mov    %rax,%rdx
    12cb:	89 c8                	mov    %ecx,%eax
    12cd:	c1 f8 1f             	sar    $0x1f,%eax
    12d0:	89 d6                	mov    %edx,%esi
    12d2:	29 c6                	sub    %eax,%esi
    12d4:	89 f0                	mov    %esi,%eax
    12d6:	89 c2                	mov    %eax,%edx
    12d8:	01 d2                	add    %edx,%edx
    12da:	01 c2                	add    %eax,%edx
    12dc:	89 c8                	mov    %ecx,%eax
    12de:	29 d0                	sub    %edx,%eax
    12e0:	85 c0                	test   %eax,%eax
    12e2:	74 37                	je     131b <main+0x112>
    12e4:	8b 8d 60 ff ff ff    	mov    -0xa0(%rbp),%ecx
    12ea:	48 63 c1             	movslq %ecx,%rax
    12ed:	48 69 c0 56 55 55 55 	imul   $0x55555556,%rax,%rax
    12f4:	48 c1 e8 20          	shr    $0x20,%rax
    12f8:	48 89 c2             	mov    %rax,%rdx
    12fb:	89 c8                	mov    %ecx,%eax
    12fd:	c1 f8 1f             	sar    $0x1f,%eax
    1300:	29 c2                	sub    %eax,%edx
    1302:	89 d0                	mov    %edx,%eax
    1304:	01 c0                	add    %eax,%eax
    1306:	01 d0                	add    %edx,%eax
    1308:	29 c1                	sub    %eax,%ecx
    130a:	89 ca                	mov    %ecx,%edx
    130c:	b8 03 00 00 00       	mov    $0x3,%eax
    1311:	29 d0                	sub    %edx,%eax
    1313:	89 85 44 ff ff ff    	mov    %eax,-0xbc(%rbp)
    1319:	eb 0a                	jmp    1325 <main+0x11c>
    131b:	c7 85 44 ff ff ff 00 	movl   $0x0,-0xbc(%rbp)
    1322:	00 00 00 
    1325:	8b 85 44 ff ff ff    	mov    -0xbc(%rbp),%eax
    132b:	89 c6                	mov    %eax,%esi
    132d:	48 8d 3d d4 0c 00 00 	lea    0xcd4(%rip),%rdi        # 2008 <_IO_stdin_used+0x8>
    1334:	b8 00 00 00 00       	mov    $0x0,%eax
    1339:	e8 a2 fd ff ff       	callq  10e0 <printf@plt>
    133e:	c7 85 64 ff ff ff 00 	movl   $0x0,-0x9c(%rbp)
    1345:	00 00 00 
    1348:	8b 85 44 ff ff ff    	mov    -0xbc(%rbp),%eax
    134e:	83 c0 01             	add    $0x1,%eax
    1351:	48 98                	cltq   
    1353:	48 89 c7             	mov    %rax,%rdi
    1356:	e8 a5 fd ff ff       	callq  1100 <malloc@plt>
    135b:	48 89 45 88          	mov    %rax,-0x78(%rbp)
    135f:	8b 85 44 ff ff ff    	mov    -0xbc(%rbp),%eax
    1365:	48 63 d0             	movslq %eax,%rdx
    1368:	48 8b 45 88          	mov    -0x78(%rbp),%rax
    136c:	be 3d 00 00 00       	mov    $0x3d,%esi
    1371:	48 89 c7             	mov    %rax,%rdi
    1374:	e8 77 fd ff ff       	callq  10f0 <memset@plt>
    1379:	8b 85 44 ff ff ff    	mov    -0xbc(%rbp),%eax
    137f:	48 63 d0             	movslq %eax,%rdx
    1382:	48 8b 45 88          	mov    -0x78(%rbp),%rax
    1386:	48 01 d0             	add    %rdx,%rax
    1389:	c6 00 00             	movb   $0x0,(%rax)
    138c:	8b 85 60 ff ff ff    	mov    -0xa0(%rbp),%eax
    1392:	c1 e0 03             	shl    $0x3,%eax
    1395:	89 85 68 ff ff ff    	mov    %eax,-0x98(%rbp)
    139b:	8b 85 68 ff ff ff    	mov    -0x98(%rbp),%eax
    13a1:	83 c0 01             	add    $0x1,%eax
    13a4:	48 98                	cltq   
    13a6:	48 89 c7             	mov    %rax,%rdi
    13a9:	e8 52 fd ff ff       	callq  1100 <malloc@plt>
    13ae:	48 89 45 90          	mov    %rax,-0x70(%rbp)
    13b2:	8b 85 68 ff ff ff    	mov    -0x98(%rbp),%eax
    13b8:	48 63 d0             	movslq %eax,%rdx
    13bb:	48 8b 45 90          	mov    -0x70(%rbp),%rax
    13bf:	be 30 00 00 00       	mov    $0x30,%esi
    13c4:	48 89 c7             	mov    %rax,%rdi
    13c7:	e8 24 fd ff ff       	callq  10f0 <memset@plt>
    13cc:	8b 85 68 ff ff ff    	mov    -0x98(%rbp),%eax
    13d2:	48 63 d0             	movslq %eax,%rdx
    13d5:	48 8b 45 90          	mov    -0x70(%rbp),%rax
    13d9:	48 01 d0             	add    %rdx,%rax
    13dc:	c6 00 00             	movb   $0x0,(%rax)
    13df:	8b 85 60 ff ff ff    	mov    -0xa0(%rbp),%eax
    13e5:	c1 e0 03             	shl    $0x3,%eax
    13e8:	f2 0f 2a c0          	cvtsi2sd %eax,%xmm0
    13ec:	f2 0f 10 0d 64 0d 00 	movsd  0xd64(%rip),%xmm1        # 2158 <_IO_stdin_used+0x158>
    13f3:	00 
    13f4:	f2 0f 5e c1          	divsd  %xmm1,%xmm0
    13f8:	e8 13 fd ff ff       	callq  1110 <ceil@plt>
    13fd:	f2 0f 2c c0          	cvttsd2si %xmm0,%eax
    1401:	89 85 6c ff ff ff    	mov    %eax,-0x94(%rbp)
    1407:	8b 95 6c ff ff ff    	mov    -0x94(%rbp),%edx
    140d:	8b 85 44 ff ff ff    	mov    -0xbc(%rbp),%eax
    1413:	01 d0                	add    %edx,%eax
    1415:	89 85 70 ff ff ff    	mov    %eax,-0x90(%rbp)
    141b:	8b 85 70 ff ff ff    	mov    -0x90(%rbp),%eax
    1421:	83 c0 01             	add    $0x1,%eax
    1424:	48 98                	cltq   
    1426:	48 89 c7             	mov    %rax,%rdi
    1429:	e8 d2 fc ff ff       	callq  1100 <malloc@plt>
    142e:	48 89 45 98          	mov    %rax,-0x68(%rbp)
    1432:	8b 85 70 ff ff ff    	mov    -0x90(%rbp),%eax
    1438:	48 63 d0             	movslq %eax,%rdx
    143b:	48 8b 45 98          	mov    -0x68(%rbp),%rax
    143f:	be 20 00 00 00       	mov    $0x20,%esi
    1444:	48 89 c7             	mov    %rax,%rdi
    1447:	e8 a4 fc ff ff       	callq  10f0 <memset@plt>
    144c:	c7 85 48 ff ff ff 00 	movl   $0x0,-0xb8(%rbp)
    1453:	00 00 00 
    1456:	c7 85 48 ff ff ff 00 	movl   $0x0,-0xb8(%rbp)
    145d:	00 00 00 
    1460:	eb 25                	jmp    1487 <main+0x27e>
    1462:	8b 85 48 ff ff ff    	mov    -0xb8(%rbp),%eax
    1468:	8d 50 01             	lea    0x1(%rax),%edx
    146b:	8b 85 70 ff ff ff    	mov    -0x90(%rbp),%eax
    1471:	29 d0                	sub    %edx,%eax
    1473:	48 63 d0             	movslq %eax,%rdx
    1476:	48 8b 45 98          	mov    -0x68(%rbp),%rax
    147a:	48 01 d0             	add    %rdx,%rax
    147d:	c6 00 3d             	movb   $0x3d,(%rax)
    1480:	83 85 48 ff ff ff 01 	addl   $0x1,-0xb8(%rbp)
    1487:	8b 85 48 ff ff ff    	mov    -0xb8(%rbp),%eax
    148d:	3b 85 44 ff ff ff    	cmp    -0xbc(%rbp),%eax
    1493:	7c cd                	jl     1462 <main+0x259>
    1495:	8b 85 70 ff ff ff    	mov    -0x90(%rbp),%eax
    149b:	48 98                	cltq   
    149d:	48 8d 50 01          	lea    0x1(%rax),%rdx
    14a1:	48 8b 45 98          	mov    -0x68(%rbp),%rax
    14a5:	48 01 d0             	add    %rdx,%rax
    14a8:	c6 00 00             	movb   $0x0,(%rax)
    14ab:	48 8b 45 98          	mov    -0x68(%rbp),%rax
    14af:	48 89 c6             	mov    %rax,%rsi
    14b2:	48 8d 3d 77 0b 00 00 	lea    0xb77(%rip),%rdi        # 2030 <_IO_stdin_used+0x30>
    14b9:	b8 00 00 00 00       	mov    $0x0,%eax
    14be:	e8 1d fc ff ff       	callq  10e0 <printf@plt>
    14c3:	c7 85 4c ff ff ff 00 	movl   $0x0,-0xb4(%rbp)
    14ca:	00 00 00 
    14cd:	c7 85 50 ff ff ff 00 	movl   $0x0,-0xb0(%rbp)
    14d4:	00 00 00 
    14d7:	c7 85 74 ff ff ff 01 	movl   $0x1,-0x8c(%rbp)
    14de:	00 00 00 
    14e1:	48 b8 30 30 30 30 30 	movabs $0x3030303030303030,%rax
    14e8:	30 30 30 
    14eb:	48 89 45 a7          	mov    %rax,-0x59(%rbp)
    14ef:	c6 45 af 00          	movb   $0x0,-0x51(%rbp)
    14f3:	c7 85 54 ff ff ff 00 	movl   $0x0,-0xac(%rbp)
    14fa:	00 00 00 
    14fd:	e9 73 02 00 00       	jmpq   1775 <main+0x56c>
    1502:	8b 85 54 ff ff ff    	mov    -0xac(%rbp),%eax
    1508:	48 98                	cltq   
    150a:	0f b6 44 05 a2       	movzbl -0x5e(%rbp,%rax,1),%eax
    150f:	0f be c0             	movsbl %al,%eax
    1512:	89 c6                	mov    %eax,%esi
    1514:	48 8d 3d 31 0b 00 00 	lea    0xb31(%rip),%rdi        # 204c <_IO_stdin_used+0x4c>
    151b:	b8 00 00 00 00       	mov    $0x0,%eax
    1520:	e8 bb fb ff ff       	callq  10e0 <printf@plt>
    1525:	8b 85 54 ff ff ff    	mov    -0xac(%rbp),%eax
    152b:	48 98                	cltq   
    152d:	0f b6 44 05 a2       	movzbl -0x5e(%rbp,%rax,1),%eax
    1532:	0f be c0             	movsbl %al,%eax
    1535:	89 85 78 ff ff ff    	mov    %eax,-0x88(%rbp)
    153b:	8b 85 78 ff ff ff    	mov    -0x88(%rbp),%eax
    1541:	89 85 58 ff ff ff    	mov    %eax,-0xa8(%rbp)
    1547:	c7 85 5c ff ff ff 00 	movl   $0x0,-0xa4(%rbp)
    154e:	00 00 00 
    1551:	e9 0b 02 00 00       	jmpq   1761 <main+0x558>
    1556:	8b 85 54 ff ff ff    	mov    -0xac(%rbp),%eax
    155c:	8d 14 c5 00 00 00 00 	lea    0x0(,%rax,8),%edx
    1563:	8b 85 5c ff ff ff    	mov    -0xa4(%rbp),%eax
    1569:	01 d0                	add    %edx,%eax
    156b:	89 85 64 ff ff ff    	mov    %eax,-0x9c(%rbp)
    1571:	b8 07 00 00 00       	mov    $0x7,%eax
    1576:	2b 85 5c ff ff ff    	sub    -0xa4(%rbp),%eax
    157c:	89 85 74 ff ff ff    	mov    %eax,-0x8c(%rbp)
    1582:	f2 0f 2a 85 74 ff ff 	cvtsi2sdl -0x8c(%rbp),%xmm0
    1589:	ff 
    158a:	48 8b 05 cf 0b 00 00 	mov    0xbcf(%rip),%rax        # 2160 <_IO_stdin_used+0x160>
    1591:	66 0f 28 c8          	movapd %xmm0,%xmm1
    1595:	66 48 0f 6e c0       	movq   %rax,%xmm0
    159a:	e8 11 fb ff ff       	callq  10b0 <pow@plt>
    159f:	f2 0f 2c c0          	cvttsd2si %xmm0,%eax
    15a3:	89 85 7c ff ff ff    	mov    %eax,-0x84(%rbp)
    15a9:	8b 85 7c ff ff ff    	mov    -0x84(%rbp),%eax
    15af:	3b 85 58 ff ff ff    	cmp    -0xa8(%rbp),%eax
    15b5:	7f 2e                	jg     15e5 <main+0x3dc>
    15b7:	8b 85 7c ff ff ff    	mov    -0x84(%rbp),%eax
    15bd:	29 85 58 ff ff ff    	sub    %eax,-0xa8(%rbp)
    15c3:	8b 85 5c ff ff ff    	mov    -0xa4(%rbp),%eax
    15c9:	48 98                	cltq   
    15cb:	c6 44 05 a7 31       	movb   $0x31,-0x59(%rbp,%rax,1)
    15d0:	8b 85 64 ff ff ff    	mov    -0x9c(%rbp),%eax
    15d6:	48 63 d0             	movslq %eax,%rdx
    15d9:	48 8b 45 90          	mov    -0x70(%rbp),%rax
    15dd:	48 01 d0             	add    %rdx,%rax
    15e0:	c6 00 31             	movb   $0x31,(%rax)
    15e3:	eb 20                	jmp    1605 <main+0x3fc>
    15e5:	8b 85 5c ff ff ff    	mov    -0xa4(%rbp),%eax
    15eb:	48 98                	cltq   
    15ed:	c6 44 05 a7 30       	movb   $0x30,-0x59(%rbp,%rax,1)
    15f2:	8b 85 64 ff ff ff    	mov    -0x9c(%rbp),%eax
    15f8:	48 63 d0             	movslq %eax,%rdx
    15fb:	48 8b 45 90          	mov    -0x70(%rbp),%rax
    15ff:	48 01 d0             	add    %rdx,%rax
    1602:	c6 00 30             	movb   $0x30,(%rax)
    1605:	8b 8d 64 ff ff ff    	mov    -0x9c(%rbp),%ecx
    160b:	48 63 c1             	movslq %ecx,%rax
    160e:	48 69 c0 ab aa aa 2a 	imul   $0x2aaaaaab,%rax,%rax
    1615:	48 c1 e8 20          	shr    $0x20,%rax
    1619:	48 89 c2             	mov    %rax,%rdx
    161c:	89 c8                	mov    %ecx,%eax
    161e:	c1 f8 1f             	sar    $0x1f,%eax
    1621:	29 c2                	sub    %eax,%edx
    1623:	89 d0                	mov    %edx,%eax
    1625:	01 c0                	add    %eax,%eax
    1627:	01 d0                	add    %edx,%eax
    1629:	01 c0                	add    %eax,%eax
    162b:	29 c1                	sub    %eax,%ecx
    162d:	89 ca                	mov    %ecx,%edx
    162f:	b8 05 00 00 00       	mov    $0x5,%eax
    1634:	29 d0                	sub    %edx,%eax
    1636:	89 45 80             	mov    %eax,-0x80(%rbp)
    1639:	f2 0f 2a 45 80       	cvtsi2sdl -0x80(%rbp),%xmm0
    163e:	48 8b 05 1b 0b 00 00 	mov    0xb1b(%rip),%rax        # 2160 <_IO_stdin_used+0x160>
    1645:	66 0f 28 c8          	movapd %xmm0,%xmm1
    1649:	66 48 0f 6e c0       	movq   %rax,%xmm0
    164e:	e8 5d fa ff ff       	callq  10b0 <pow@plt>
    1653:	f2 0f 2c c0          	cvttsd2si %xmm0,%eax
    1657:	89 45 84             	mov    %eax,-0x7c(%rbp)
    165a:	8b 85 64 ff ff ff    	mov    -0x9c(%rbp),%eax
    1660:	48 63 d0             	movslq %eax,%rdx
    1663:	48 8b 45 90          	mov    -0x70(%rbp),%rax
    1667:	48 01 d0             	add    %rdx,%rax
    166a:	0f b6 00             	movzbl (%rax),%eax
    166d:	3c 31                	cmp    $0x31,%al
    166f:	75 09                	jne    167a <main+0x471>
    1671:	8b 45 84             	mov    -0x7c(%rbp),%eax
    1674:	01 85 50 ff ff ff    	add    %eax,-0xb0(%rbp)
    167a:	8b 8d 64 ff ff ff    	mov    -0x9c(%rbp),%ecx
    1680:	48 63 c1             	movslq %ecx,%rax
    1683:	48 69 c0 ab aa aa 2a 	imul   $0x2aaaaaab,%rax,%rax
    168a:	48 c1 e8 20          	shr    $0x20,%rax
    168e:	48 89 c2             	mov    %rax,%rdx
    1691:	89 c8                	mov    %ecx,%eax
    1693:	c1 f8 1f             	sar    $0x1f,%eax
    1696:	29 c2                	sub    %eax,%edx
    1698:	89 d0                	mov    %edx,%eax
    169a:	01 c0                	add    %eax,%eax
    169c:	01 d0                	add    %edx,%eax
    169e:	01 c0                	add    %eax,%eax
    16a0:	29 c1                	sub    %eax,%ecx
    16a2:	89 ca                	mov    %ecx,%edx
    16a4:	89 d6                	mov    %edx,%esi
    16a6:	48 8d 3d bb 09 00 00 	lea    0x9bb(%rip),%rdi        # 2068 <_IO_stdin_used+0x68>
    16ad:	b8 00 00 00 00       	mov    $0x0,%eax
    16b2:	e8 29 fa ff ff       	callq  10e0 <printf@plt>
    16b7:	8b 85 64 ff ff ff    	mov    -0x9c(%rbp),%eax
    16bd:	8d 48 01             	lea    0x1(%rax),%ecx
    16c0:	48 63 c1             	movslq %ecx,%rax
    16c3:	48 69 c0 ab aa aa 2a 	imul   $0x2aaaaaab,%rax,%rax
    16ca:	48 c1 e8 20          	shr    $0x20,%rax
    16ce:	48 89 c2             	mov    %rax,%rdx
    16d1:	89 c8                	mov    %ecx,%eax
    16d3:	c1 f8 1f             	sar    $0x1f,%eax
    16d6:	29 c2                	sub    %eax,%edx
    16d8:	89 d0                	mov    %edx,%eax
    16da:	01 c0                	add    %eax,%eax
    16dc:	01 d0                	add    %edx,%eax
    16de:	01 c0                	add    %eax,%eax
    16e0:	29 c1                	sub    %eax,%ecx
    16e2:	89 ca                	mov    %ecx,%edx
    16e4:	85 d2                	test   %edx,%edx
    16e6:	75 72                	jne    175a <main+0x551>
    16e8:	8b 85 50 ff ff ff    	mov    -0xb0(%rbp),%eax
    16ee:	89 c6                	mov    %eax,%esi
    16f0:	48 8d 3d a0 09 00 00 	lea    0x9a0(%rip),%rdi        # 2097 <_IO_stdin_used+0x97>
    16f7:	b8 00 00 00 00       	mov    $0x0,%eax
    16fc:	e8 df f9 ff ff       	callq  10e0 <printf@plt>
    1701:	8b 85 4c ff ff ff    	mov    -0xb4(%rbp),%eax
    1707:	48 63 d0             	movslq %eax,%rdx
    170a:	48 8b 45 98          	mov    -0x68(%rbp),%rax
    170e:	48 01 c2             	add    %rax,%rdx
    1711:	8b 85 50 ff ff ff    	mov    -0xb0(%rbp),%eax
    1717:	48 98                	cltq   
    1719:	0f b6 44 05 b0       	movzbl -0x50(%rbp,%rax,1),%eax
    171e:	88 02                	mov    %al,(%rdx)
    1720:	8b 85 4c ff ff ff    	mov    -0xb4(%rbp),%eax
    1726:	48 63 d0             	movslq %eax,%rdx
    1729:	48 8b 45 98          	mov    -0x68(%rbp),%rax
    172d:	48 01 d0             	add    %rdx,%rax
    1730:	0f b6 00             	movzbl (%rax),%eax
    1733:	0f be c0             	movsbl %al,%eax
    1736:	89 c6                	mov    %eax,%esi
    1738:	48 8d 3d 79 09 00 00 	lea    0x979(%rip),%rdi        # 20b8 <_IO_stdin_used+0xb8>
    173f:	b8 00 00 00 00       	mov    $0x0,%eax
    1744:	e8 97 f9 ff ff       	callq  10e0 <printf@plt>
    1749:	c7 85 50 ff ff ff 00 	movl   $0x0,-0xb0(%rbp)
    1750:	00 00 00 
    1753:	83 85 4c ff ff ff 01 	addl   $0x1,-0xb4(%rbp)
    175a:	83 85 5c ff ff ff 01 	addl   $0x1,-0xa4(%rbp)
    1761:	83 bd 5c ff ff ff 07 	cmpl   $0x7,-0xa4(%rbp)
    1768:	0f 8e e8 fd ff ff    	jle    1556 <main+0x34d>
    176e:	83 85 54 ff ff ff 01 	addl   $0x1,-0xac(%rbp)
    1775:	8b 85 54 ff ff ff    	mov    -0xac(%rbp),%eax
    177b:	3b 85 60 ff ff ff    	cmp    -0xa0(%rbp),%eax
    1781:	0f 8c 7b fd ff ff    	jl     1502 <main+0x2f9>
    1787:	8b 85 4c ff ff ff    	mov    -0xb4(%rbp),%eax
    178d:	83 c0 01             	add    $0x1,%eax
    1790:	39 85 6c ff ff ff    	cmp    %eax,-0x94(%rbp)
    1796:	75 38                	jne    17d0 <main+0x5c7>
    1798:	8b 85 50 ff ff ff    	mov    -0xb0(%rbp),%eax
    179e:	89 c6                	mov    %eax,%esi
    17a0:	48 8d 3d f0 08 00 00 	lea    0x8f0(%rip),%rdi        # 2097 <_IO_stdin_used+0x97>
    17a7:	b8 00 00 00 00       	mov    $0x0,%eax
    17ac:	e8 2f f9 ff ff       	callq  10e0 <printf@plt>
    17b1:	8b 85 4c ff ff ff    	mov    -0xb4(%rbp),%eax
    17b7:	48 63 d0             	movslq %eax,%rdx
    17ba:	48 8b 45 98          	mov    -0x68(%rbp),%rax
    17be:	48 01 c2             	add    %rax,%rdx
    17c1:	8b 85 50 ff ff ff    	mov    -0xb0(%rbp),%eax
    17c7:	48 98                	cltq   
    17c9:	0f b6 44 05 b0       	movzbl -0x50(%rbp,%rax,1),%eax
    17ce:	88 02                	mov    %al,(%rdx)
    17d0:	48 8d 45 a7          	lea    -0x59(%rbp),%rax
    17d4:	48 89 c6             	mov    %rax,%rsi
    17d7:	48 8d 3d 10 09 00 00 	lea    0x910(%rip),%rdi        # 20ee <_IO_stdin_used+0xee>
    17de:	b8 00 00 00 00       	mov    $0x0,%eax
    17e3:	e8 f8 f8 ff ff       	callq  10e0 <printf@plt>
    17e8:	48 8b 45 90          	mov    -0x70(%rbp),%rax
    17ec:	48 89 c6             	mov    %rax,%rsi
    17ef:	48 8d 3d 07 09 00 00 	lea    0x907(%rip),%rdi        # 20fd <_IO_stdin_used+0xfd>
    17f6:	b8 00 00 00 00       	mov    $0x0,%eax
    17fb:	e8 e0 f8 ff ff       	callq  10e0 <printf@plt>
    1800:	48 8b 45 98          	mov    -0x68(%rbp),%rax
    1804:	48 89 c6             	mov    %rax,%rsi
    1807:	48 8d 3d 07 09 00 00 	lea    0x907(%rip),%rdi        # 2115 <_IO_stdin_used+0x115>
    180e:	b8 00 00 00 00       	mov    $0x0,%eax
    1813:	e8 c8 f8 ff ff       	callq  10e0 <printf@plt>
    1818:	48 8b 45 88          	mov    -0x78(%rbp),%rax
    181c:	48 89 c6             	mov    %rax,%rsi
    181f:	48 8d 3d 12 09 00 00 	lea    0x912(%rip),%rdi        # 2138 <_IO_stdin_used+0x138>
    1826:	b8 00 00 00 00       	mov    $0x0,%eax
    182b:	e8 b0 f8 ff ff       	callq  10e0 <printf@plt>
    1830:	b8 00 00 00 00       	mov    $0x0,%eax
    1835:	48 8b 75 f8          	mov    -0x8(%rbp),%rsi
    1839:	64 48 33 34 25 28 00 	xor    %fs:0x28,%rsi
    1840:	00 00 
    1842:	74 05                	je     1849 <main+0x640>
    1844:	e8 87 f8 ff ff       	callq  10d0 <__stack_chk_fail@plt>
    1849:	c9                   	leaveq 
    184a:	c3                   	retq   
    184b:	0f 1f 44 00 00       	nopl   0x0(%rax,%rax,1)

0000000000001850 <__libc_csu_init>:
    1850:	f3 0f 1e fa          	endbr64 
    1854:	41 57                	push   %r15
    1856:	4c 8d 3d 1b 25 00 00 	lea    0x251b(%rip),%r15        # 3d78 <__frame_dummy_init_array_entry>
    185d:	41 56                	push   %r14
    185f:	49 89 d6             	mov    %rdx,%r14
    1862:	41 55                	push   %r13
    1864:	49 89 f5             	mov    %rsi,%r13
    1867:	41 54                	push   %r12
    1869:	41 89 fc             	mov    %edi,%r12d
    186c:	55                   	push   %rbp
    186d:	48 8d 2d 0c 25 00 00 	lea    0x250c(%rip),%rbp        # 3d80 <__do_global_dtors_aux_fini_array_entry>
    1874:	53                   	push   %rbx
    1875:	4c 29 fd             	sub    %r15,%rbp
    1878:	48 83 ec 08          	sub    $0x8,%rsp
    187c:	e8 7f f7 ff ff       	callq  1000 <_init>
    1881:	48 c1 fd 03          	sar    $0x3,%rbp
    1885:	74 1f                	je     18a6 <__libc_csu_init+0x56>
    1887:	31 db                	xor    %ebx,%ebx
    1889:	0f 1f 80 00 00 00 00 	nopl   0x0(%rax)
    1890:	4c 89 f2             	mov    %r14,%rdx
    1893:	4c 89 ee             	mov    %r13,%rsi
    1896:	44 89 e7             	mov    %r12d,%edi
    1899:	41 ff 14 df          	callq  *(%r15,%rbx,8)
    189d:	48 83 c3 01          	add    $0x1,%rbx
    18a1:	48 39 dd             	cmp    %rbx,%rbp
    18a4:	75 ea                	jne    1890 <__libc_csu_init+0x40>
    18a6:	48 83 c4 08          	add    $0x8,%rsp
    18aa:	5b                   	pop    %rbx
    18ab:	5d                   	pop    %rbp
    18ac:	41 5c                	pop    %r12
    18ae:	41 5d                	pop    %r13
    18b0:	41 5e                	pop    %r14
    18b2:	41 5f                	pop    %r15
    18b4:	c3                   	retq   
    18b5:	66 66 2e 0f 1f 84 00 	data16 nopw %cs:0x0(%rax,%rax,1)
    18bc:	00 00 00 00 

00000000000018c0 <__libc_csu_fini>:
    18c0:	f3 0f 1e fa          	endbr64 
    18c4:	c3                   	retq   

Disassembly of section .fini:

00000000000018c8 <_fini>:
    18c8:	f3 0f 1e fa          	endbr64 
    18cc:	48 83 ec 08          	sub    $0x8,%rsp
    18d0:	48 83 c4 08          	add    $0x8,%rsp
    18d4:	c3                   	retq   
